target datalayout = "e-m:e-p270:32:32-p271:32:32-p272:64:64-i64:64-i128:128-f80:128-n8:16:32:64-S128"
target triple = "x86_64-pc-linux-gnu"

%struct.lzma_block = type { i32, i32, i32, i64, i64, ptr, [64 x i8], ptr, ptr, ptr, i32, i32, i64, i64, i64, i64, i64, i64, i32, i32, i32, i32, i8, i8, i8, i8, i8, i8, i8, i8 }
%struct.lzma_next_coder_s = type { ptr, i64, i64, ptr, ptr, ptr, ptr, ptr, ptr, ptr }

; Function Attrs: nounwind uwtable
define internal i32 @block_encode_normal(ptr noundef %0, ptr noundef %1, ptr noundef %2, i64 noundef %3, ptr noundef %4, ptr noundef %5, i64 noundef %6) #0 {
  %8 = alloca i32, align 4
  %9 = alloca ptr, align 8
  %10 = alloca ptr, align 8
  %11 = alloca ptr, align 8
  %12 = alloca i64, align 8
  %13 = alloca ptr, align 8
  %14 = alloca ptr, align 8
  %15 = alloca i64, align 8
  %16 = alloca i32, align 4
  %17 = alloca i32, align 4
  %18 = alloca i64, align 8
  %19 = alloca %struct.lzma_next_coder_s, align 8
  %20 = alloca i32, align 4
  %21 = alloca i64, align 8
  store ptr %0, ptr %9, align 8, !tbaa !8
  store ptr %1, ptr %10, align 8, !tbaa !8
  store ptr %2, ptr %11, align 8, !tbaa !10
  store i64 %3, ptr %12, align 8, !tbaa !4
  store ptr %4, ptr %13, align 8, !tbaa !10
  store ptr %5, ptr %14, align 8, !tbaa !12
  store i64 %6, ptr %15, align 8, !tbaa !4
  br label %22

22:                                               ; preds = %7
  call void @llvm.lifetime.start.p0(i64 4, ptr %16) #7
  %23 = load ptr, ptr %9, align 8, !tbaa !8
  %24 = call i32 @lzma_block_header_size(ptr noundef %23) #7
  store i32 %24, ptr %16, align 4, !tbaa !25
  %25 = load i32, ptr %16, align 4, !tbaa !25
  %26 = icmp ne i32 %25, 0
  br i1 %26, label %27, label %29

27:                                               ; preds = %22
  %28 = load i32, ptr %16, align 4, !tbaa !25
  store i32 %28, ptr %8, align 4
  store i32 1, ptr %17, align 4
  br label %30

29:                                               ; preds = %22
  store i32 0, ptr %17, align 4
  br label %30

30:                                               ; preds = %29, %27
  call void @llvm.lifetime.end.p0(i64 4, ptr %16) #7
  %31 = load i32, ptr %17, align 4
  switch i32 %31, label %130 [
    i32 0, label %32
    i32 1, label %128
  ]

32:                                               ; preds = %30
  br label %33

33:                                               ; preds = %32
  %34 = load i64, ptr %15, align 8, !tbaa !4
  %35 = load ptr, ptr %14, align 8, !tbaa !12
  %36 = load i64, ptr %35, align 8, !tbaa !4
  %37 = sub i64 %34, %36
  %38 = load ptr, ptr %9, align 8, !tbaa !8
  %39 = getelementptr inbounds nuw %struct.lzma_block, ptr %38, i32 0, i32 1
  %40 = load i32, ptr %39, align 4, !tbaa !29
  %41 = zext i32 %40 to i64
  %42 = icmp ule i64 %37, %41
  br i1 %42, label %43, label %44

43:                                               ; preds = %33
  store i32 10, ptr %8, align 4
  br label %128

44:                                               ; preds = %33
  call void @llvm.lifetime.start.p0(i64 8, ptr %18) #7
  %45 = load ptr, ptr %14, align 8, !tbaa !12
  %46 = load i64, ptr %45, align 8, !tbaa !4
  store i64 %46, ptr %18, align 8, !tbaa !4
  %47 = load ptr, ptr %9, align 8, !tbaa !8
  %48 = getelementptr inbounds nuw %struct.lzma_block, ptr %47, i32 0, i32 1
  %49 = load i32, ptr %48, align 4, !tbaa !29
  %50 = zext i32 %49 to i64
  %51 = load ptr, ptr %14, align 8, !tbaa !12
  %52 = load i64, ptr %51, align 8, !tbaa !4
  %53 = add i64 %52, %50
  store i64 %53, ptr %51, align 8, !tbaa !4
  %54 = load i64, ptr %15, align 8, !tbaa !4
  %55 = load ptr, ptr %14, align 8, !tbaa !12
  %56 = load i64, ptr %55, align 8, !tbaa !4
  %57 = sub i64 %54, %56
  %58 = load ptr, ptr %9, align 8, !tbaa !8
  %59 = getelementptr inbounds nuw %struct.lzma_block, ptr %58, i32 0, i32 3
  %60 = load i64, ptr %59, align 8, !tbaa !24
  %61 = icmp ugt i64 %57, %60
  br i1 %61, label %62, label %69

62:                                               ; preds = %44
  %63 = load ptr, ptr %14, align 8, !tbaa !12
  %64 = load i64, ptr %63, align 8, !tbaa !4
  %65 = load ptr, ptr %9, align 8, !tbaa !8
  %66 = getelementptr inbounds nuw %struct.lzma_block, ptr %65, i32 0, i32 3
  %67 = load i64, ptr %66, align 8, !tbaa !24
  %68 = add i64 %64, %67
  store i64 %68, ptr %15, align 8, !tbaa !4
  br label %69

69:                                               ; preds = %62, %44
  call void @llvm.lifetime.start.p0(i64 80, ptr %19) #7
  call void @llvm.memset.p0.i64(ptr align 8 %19, i8 0, i64 80, i1 false)
  %70 = getelementptr inbounds %struct.lzma_next_coder_s, ptr %19, i32 0, i32 1
  store i64 -1, ptr %70, align 8
  call void @llvm.lifetime.start.p0(i64 4, ptr %20) #7
  %71 = load ptr, ptr %10, align 8, !tbaa !8
  %72 = load ptr, ptr %9, align 8, !tbaa !8
  %73 = getelementptr inbounds nuw %struct.lzma_block, ptr %72, i32 0, i32 5
  %74 = load ptr, ptr %73, align 8, !tbaa !22
  %75 = call i32 @lzma_raw_encoder_init(ptr noundef %19, ptr noundef %71, ptr noundef %74)
  store i32 %75, ptr %20, align 4, !tbaa !25
  %76 = load i32, ptr %20, align 4, !tbaa !25
  %77 = icmp eq i32 %76, 0
  br i1 %77, label %78, label %90

78:                                               ; preds = %69
  call void @llvm.lifetime.start.p0(i64 8, ptr %21) #7
  store i64 0, ptr %21, align 8, !tbaa !4
  %79 = getelementptr inbounds nuw %struct.lzma_next_coder_s, ptr %19, i32 0, i32 3
  %80 = load ptr, ptr %79, align 8, !tbaa !30
  %81 = getelementptr inbounds nuw %struct.lzma_next_coder_s, ptr %19, i32 0, i32 0
  %82 = load ptr, ptr %81, align 8, !tbaa !32
  %83 = load ptr, ptr %10, align 8, !tbaa !8
  %84 = load ptr, ptr %11, align 8, !tbaa !10
  %85 = load i64, ptr %12, align 8, !tbaa !4
  %86 = load ptr, ptr %13, align 8, !tbaa !10
  %87 = load ptr, ptr %14, align 8, !tbaa !12
  %88 = load i64, ptr %15, align 8, !tbaa !4
  %89 = call i32 %80(ptr noundef %82, ptr noundef %83, ptr noundef %84, ptr noundef %21, i64 noundef %85, ptr noundef %86, ptr noundef %87, i64 noundef %88, i32 noundef 3)
  store i32 %89, ptr %20, align 4, !tbaa !25
  call void @llvm.lifetime.end.p0(i64 8, ptr %21) #7
  br label %90

90:                                               ; preds = %78, %69
  %91 = load ptr, ptr %10, align 8, !tbaa !8
  call void @lzma_next_end(ptr noundef %19, ptr noundef %91)
  %92 = load i32, ptr %20, align 4, !tbaa !25
  %93 = icmp eq i32 %92, 1
  br i1 %93, label %94, label %115

94:                                               ; preds = %90
  %95 = load ptr, ptr %14, align 8, !tbaa !12
  %96 = load i64, ptr %95, align 8, !tbaa !4
  %97 = load i64, ptr %18, align 8, !tbaa !4
  %98 = load ptr, ptr %9, align 8, !tbaa !8
  %99 = getelementptr inbounds nuw %struct.lzma_block, ptr %98, i32 0, i32 1
  %100 = load i32, ptr %99, align 4, !tbaa !29
  %101 = zext i32 %100 to i64
  %102 = add i64 %97, %101
  %103 = sub i64 %96, %102
  %104 = load ptr, ptr %9, align 8, !tbaa !8
  %105 = getelementptr inbounds nuw %struct.lzma_block, ptr %104, i32 0, i32 3
  store i64 %103, ptr %105, align 8, !tbaa !24
  %106 = load ptr, ptr %9, align 8, !tbaa !8
  %107 = load ptr, ptr %13, align 8, !tbaa !10
  %108 = load i64, ptr %18, align 8, !tbaa !4
  %109 = getelementptr inbounds nuw i8, ptr %107, i64 %108
  %110 = call i32 @lzma_block_header_encode(ptr noundef %106, ptr noundef %109) #7
  store i32 %110, ptr %20, align 4, !tbaa !25
  %111 = load i32, ptr %20, align 4, !tbaa !25
  %112 = icmp ne i32 %111, 0
  br i1 %112, label %113, label %114

113:                                              ; preds = %94
  store i32 11, ptr %20, align 4, !tbaa !25
  br label %114

114:                                              ; preds = %113, %94
  br label %120

115:                                              ; preds = %90
  %116 = load i32, ptr %20, align 4, !tbaa !25
  %117 = icmp eq i32 %116, 0
  br i1 %117, label %118, label %119

118:                                              ; preds = %115
  store i32 10, ptr %20, align 4, !tbaa !25
  br label %119

119:                                              ; preds = %118, %115
  br label %120

120:                                              ; preds = %119, %114
  %121 = load i32, ptr %20, align 4, !tbaa !25
  %122 = icmp ne i32 %121, 0
  br i1 %122, label %123, label %126

123:                                              ; preds = %120
  %124 = load i64, ptr %18, align 8, !tbaa !4
  %125 = load ptr, ptr %14, align 8, !tbaa !12
  store i64 %124, ptr %125, align 8, !tbaa !4
  br label %126

126:                                              ; preds = %123, %120
  %127 = load i32, ptr %20, align 4, !tbaa !25
  store i32 %127, ptr %8, align 4
  store i32 1, ptr %17, align 4
  call void @llvm.lifetime.end.p0(i64 4, ptr %20) #7
  call void @llvm.lifetime.end.p0(i64 80, ptr %19) #7
  call void @llvm.lifetime.end.p0(i64 8, ptr %18) #7
  br label %128

128:                                              ; preds = %126, %43, %30
  %129 = load i32, ptr %8, align 4
  ret i32 %129

130:                                              ; preds = %30
  unreachable
}