; Function Attrs: nounwind uwtable
define internal fastcc i32 @block_encode_normal(ptr noundef nonnull %0, ptr noundef %1, ptr noundef %2, i64 noundef %3, ptr noundef nonnull %4, ptr noundef nonnull %5, i64 noundef %6) unnamed_addr #2 {
  %8 = alloca %struct.lzma_next_coder_s, align 8
  %9 = alloca i64, align 8
  %10 = tail call i32 @lzma_block_header_size(ptr noundef nonnull %0) #10
  %.not.not = icmp eq i32 %10, 0
  br i1 %.not.not, label %11, label %45

11:                                               ; preds = %7
  %12 = load i64, ptr %5, align 8, !tbaa !4
  %13 = sub i64 %6, %12
  %14 = getelementptr inbounds nuw i8, ptr %0, i64 4
  %15 = load i32, ptr %14, align 4, !tbaa !19
  %16 = zext i32 %15 to i64
  %.not47 = icmp ugt i64 %13, %16
  br i1 %.not47, label %17, label %45

17:                                               ; preds = %11
  %18 = add i64 %12, %16
  store i64 %18, ptr %5, align 8, !tbaa !4
  %19 = getelementptr inbounds nuw i8, ptr %0, i64 16
  %20 = load i64, ptr %19, align 8, !tbaa !15
  call void @llvm.lifetime.start.p0(i64 80, ptr nonnull %8) #10
  call void @llvm.memset.p0.i64(ptr noundef nonnull align 8 dereferenceable(80) %8, i8 0, i64 80, i1 false)
  %21 = getelementptr inbounds nuw i8, ptr %8, i64 8
  store i64 -1, ptr %21, align 8
  %22 = getelementptr inbounds nuw i8, ptr %0, i64 32
  %23 = load ptr, ptr %22, align 8, !tbaa !13
  %24 = call i32 @lzma_raw_encoder_init(ptr noundef nonnull %8, ptr noundef %1, ptr noundef %23) #10
  %25 = icmp eq i32 %24, 0
  br i1 %25, label %26, label %34

26:                                               ; preds = %17
  %27 = sub i64 %6, %18
  %28 = icmp ugt i64 %27, %20
  %29 = add i64 %20, %18
  %spec.select = select i1 %28, i64 %29, i64 %6
  call void @llvm.lifetime.start.p0(i64 8, ptr nonnull %9) #10
  store i64 0, ptr %9, align 8, !tbaa !4
  %30 = getelementptr inbounds nuw i8, ptr %8, i64 24
  %31 = load ptr, ptr %30, align 8, !tbaa !20
  %32 = load ptr, ptr %8, align 8, !tbaa !22
  %33 = call i32 %31(ptr noundef %32, ptr noundef %1, ptr noundef %2, ptr noundef nonnull %9, i64 noundef %3, ptr noundef nonnull %4, ptr noundef nonnull %5, i64 noundef %spec.select, i32 noundef 3) #10
  call void @llvm.lifetime.end.p0(i64 8, ptr nonnull %9) #10
  br label %34

34:                                               ; preds = %26, %17
  %.0 = phi i32 [ %33, %26 ], [ %24, %17 ]
  call void @lzma_next_end(ptr noundef nonnull %8, ptr noundef %1) #10
  switch i32 %.0, label %43 [
    i32 1, label %35
    i32 0, label %select.unfold50
  ]

35:                                               ; preds = %34
  %36 = load i64, ptr %5, align 8, !tbaa !4
  %37 = load i32, ptr %14, align 4, !tbaa !19
  %38 = zext i32 %37 to i64
  %39 = add i64 %12, %38
  %40 = sub i64 %36, %39
  store i64 %40, ptr %19, align 8, !tbaa !15
  %41 = getelementptr inbounds nuw i8, ptr %4, i64 %12
  %42 = call i32 @lzma_block_header_encode(ptr noundef nonnull %0, ptr noundef nonnull %41) #10
  %.not48 = icmp eq i32 %42, 0
  br i1 %.not48, label %44, label %43

select.unfold50:                                  ; preds = %34
  br label %43

43:                                               ; preds = %34, %35, %select.unfold50
  %.1.ph = phi i32 [ 10, %select.unfold50 ], [ 11, %35 ], [ %.0, %34 ]
  store i64 %12, ptr %5, align 8, !tbaa !4
  br label %44

44:                                               ; preds = %35, %43
  %.154 = phi i32 [ %.1.ph, %43 ], [ 0, %35 ]
  call void @llvm.lifetime.end.p0(i64 80, ptr nonnull %8) #10
  br label %45

45:                                               ; preds = %7, %11, %44
  %.141 = phi i32 [ %10, %7 ], [ %.154, %44 ], [ 10, %11 ]
  ret i32 %.141
}